; ModuleID = '29/608.c'
source_filename = "29/608.c"
target datalayout = "e-m:e-p270:32:32-p271:32:32-p272:64:64-i64:64-f80:128-n8:16:32:64-S128"
target triple = "x86_64-pc-linux-gnu"

@.str = private unnamed_addr constant [3 x i8] c"%d\00", align 1
@.str.1 = private unnamed_addr constant [6 x i8] c"%.3f\0A\00", align 1

; Function Attrs: noinline nounwind uwtable
define dso_local i32 @main() #0 {
  %1 = alloca i32, align 4
  %2 = alloca i32, align 4
  %3 = alloca i32, align 4
  %4 = alloca [100 x float], align 16
  %5 = alloca [100 x [100 x i32]], align 16
  %6 = alloca [100 x [100 x i32]], align 16
  %7 = alloca i32, align 4
  %8 = alloca i32, align 4
  %9 = alloca i32, align 4
  %10 = alloca i32, align 4
  store i32 0, i32* %1, align 4
  %11 = call i32 (i8*, ...) @__isoc99_scanf(i8* getelementptr inbounds ([3 x i8], [3 x i8]* @.str, i64 0, i64 0), i32* %2)
  store i32 0, i32* %7, align 4
  br label %12

12:                                               ; preds = %20, %0
  %13 = load i32, i32* %7, align 4
  %14 = load i32, i32* %2, align 4
  %15 = icmp slt i32 %13, %14
  br i1 %15, label %16, label %23

16:                                               ; preds = %12
  %17 = load i32, i32* %7, align 4
  %18 = sext i32 %17 to i64
  %19 = getelementptr inbounds [100 x float], [100 x float]* %4, i64 0, i64 %18
  store float 3.500000e+00, float* %19, align 4
  br label %20

20:                                               ; preds = %16
  %21 = load i32, i32* %7, align 4
  %22 = add nsw i32 %21, 1
  store i32 %22, i32* %7, align 4
  br label %12

23:                                               ; preds = %12
  store i32 0, i32* %8, align 4
  br label %24

24:                                               ; preds = %126, %23
  %25 = load i32, i32* %8, align 4
  %26 = load i32, i32* %2, align 4
  %27 = icmp slt i32 %25, %26
  br i1 %27, label %28, label %129

28:                                               ; preds = %24
  %29 = call i32 (i8*, ...) @__isoc99_scanf(i8* getelementptr inbounds ([3 x i8], [3 x i8]* @.str, i64 0, i64 0), i32* %3)
  store i32 0, i32* %9, align 4
  br label %30

30:                                               ; preds = %122, %28
  %31 = load i32, i32* %9, align 4
  %32 = load i32, i32* %3, align 4
  %33 = icmp slt i32 %31, %32
  br i1 %33, label %34, label %125

34:                                               ; preds = %30
  %35 = load i32, i32* %9, align 4
  %36 = icmp eq i32 %35, 0
  br i1 %36, label %37, label %44

37:                                               ; preds = %34
  %38 = load i32, i32* %8, align 4
  %39 = sext i32 %38 to i64
  %40 = getelementptr inbounds [100 x [100 x i32]], [100 x [100 x i32]]* %5, i64 0, i64 %39
  %41 = load i32, i32* %9, align 4
  %42 = sext i32 %41 to i64
  %43 = getelementptr inbounds [100 x i32], [100 x i32]* %40, i64 0, i64 %42
  store i32 2, i32* %43, align 4
  br label %44

44:                                               ; preds = %37, %34
  %45 = load i32, i32* %9, align 4
  %46 = icmp eq i32 %45, 1
  br i1 %46, label %47, label %54

47:                                               ; preds = %44
  %48 = load i32, i32* %8, align 4
  %49 = sext i32 %48 to i64
  %50 = getelementptr inbounds [100 x [100 x i32]], [100 x [100 x i32]]* %5, i64 0, i64 %49
  %51 = load i32, i32* %9, align 4
  %52 = sext i32 %51 to i64
  %53 = getelementptr inbounds [100 x i32], [100 x i32]* %50, i64 0, i64 %52
  store i32 3, i32* %53, align 4
  br label %54

54:                                               ; preds = %47, %44
  %55 = load i32, i32* %9, align 4
  %56 = icmp sge i32 %55, 2
  br i1 %56, label %57, label %81

57:                                               ; preds = %54
  %58 = load i32, i32* %8, align 4
  %59 = sext i32 %58 to i64
  %60 = getelementptr inbounds [100 x [100 x i32]], [100 x [100 x i32]]* %5, i64 0, i64 %59
  %61 = load i32, i32* %9, align 4
  %62 = sub nsw i32 %61, 1
  %63 = sext i32 %62 to i64
  %64 = getelementptr inbounds [100 x i32], [100 x i32]* %60, i64 0, i64 %63
  %65 = load i32, i32* %64, align 4
  %66 = load i32, i32* %8, align 4
  %67 = sext i32 %66 to i64
  %68 = getelementptr inbounds [100 x [100 x i32]], [100 x [100 x i32]]* %5, i64 0, i64 %67
  %69 = load i32, i32* %9, align 4
  %70 = sub nsw i32 %69, 2
  %71 = sext i32 %70 to i64
  %72 = getelementptr inbounds [100 x i32], [100 x i32]* %68, i64 0, i64 %71
  %73 = load i32, i32* %72, align 4
  %74 = add nsw i32 %65, %73
  %75 = load i32, i32* %8, align 4
  %76 = sext i32 %75 to i64
  %77 = getelementptr inbounds [100 x [100 x i32]], [100 x [100 x i32]]* %5, i64 0, i64 %76
  %78 = load i32, i32* %9, align 4
  %79 = sext i32 %78 to i64
  %80 = getelementptr inbounds [100 x i32], [100 x i32]* %77, i64 0, i64 %79
  store i32 %74, i32* %80, align 4
  br label %81

81:                                               ; preds = %57, %54
  %82 = load i32, i32* %3, align 4
  %83 = icmp ne i32 %82, 1
  br i1 %83, label %84, label %114

84:                                               ; preds = %81
  %85 = load i32, i32* %9, align 4
  %86 = icmp sgt i32 %85, 1
  br i1 %86, label %87, label %114

87:                                               ; preds = %84
  %88 = load i32, i32* %8, align 4
  %89 = sext i32 %88 to i64
  %90 = getelementptr inbounds [100 x [100 x i32]], [100 x [100 x i32]]* %5, i64 0, i64 %89
  %91 = load i32, i32* %9, align 4
  %92 = sext i32 %91 to i64
  %93 = getelementptr inbounds [100 x i32], [100 x i32]* %90, i64 0, i64 %92
  %94 = load i32, i32* %93, align 4
  %95 = sitofp i32 %94 to double
  %96 = fmul double 1.000000e+00, %95
  %97 = load i32, i32* %8, align 4
  %98 = sext i32 %97 to i64
  %99 = getelementptr inbounds [100 x [100 x i32]], [100 x [100 x i32]]* %5, i64 0, i64 %98
  %100 = load i32, i32* %9, align 4
  %101 = sub nsw i32 %100, 1
  %102 = sext i32 %101 to i64
  %103 = getelementptr inbounds [100 x i32], [100 x i32]* %99, i64 0, i64 %102
  %104 = load i32, i32* %103, align 4
  %105 = sitofp i32 %104 to double
  %106 = fdiv double %96, %105
  %107 = load i32, i32* %8, align 4
  %108 = sext i32 %107 to i64
  %109 = getelementptr inbounds [100 x float], [100 x float]* %4, i64 0, i64 %108
  %110 = load float, float* %109, align 4
  %111 = fpext float %110 to double
  %112 = fadd double %111, %106
  %113 = fptrunc double %112 to float
  store float %113, float* %109, align 4
  br label %114

114:                                              ; preds = %87, %84, %81
  %115 = load i32, i32* %3, align 4
  %116 = icmp eq i32 %115, 1
  br i1 %116, label %117, label %121

117:                                              ; preds = %114
  %118 = load i32, i32* %8, align 4
  %119 = sext i32 %118 to i64
  %120 = getelementptr inbounds [100 x float], [100 x float]* %4, i64 0, i64 %119
  store float 2.000000e+00, float* %120, align 4
  br label %121

121:                                              ; preds = %117, %114
  br label %122

122:                                              ; preds = %121
  %123 = load i32, i32* %9, align 4
  %124 = add nsw i32 %123, 1
  store i32 %124, i32* %9, align 4
  br label %30

125:                                              ; preds = %30
  br label %126

126:                                              ; preds = %125
  %127 = load i32, i32* %8, align 4
  %128 = add nsw i32 %127, 1
  store i32 %128, i32* %8, align 4
  br label %24

129:                                              ; preds = %24
  store i32 0, i32* %10, align 4
  br label %130

130:                                              ; preds = %141, %129
  %131 = load i32, i32* %10, align 4
  %132 = load i32, i32* %2, align 4
  %133 = icmp slt i32 %131, %132
  br i1 %133, label %134, label %144

134:                                              ; preds = %130
  %135 = load i32, i32* %10, align 4
  %136 = sext i32 %135 to i64
  %137 = getelementptr inbounds [100 x float], [100 x float]* %4, i64 0, i64 %136
  %138 = load float, float* %137, align 4
  %139 = fpext float %138 to double
  %140 = call i32 (i8*, ...) @printf(i8* getelementptr inbounds ([6 x i8], [6 x i8]* @.str.1, i64 0, i64 0), double %139)
  br label %141

141:                                              ; preds = %134
  %142 = load i32, i32* %10, align 4
  %143 = add nsw i32 %142, 1
  store i32 %143, i32* %10, align 4
  br label %130

144:                                              ; preds = %130
  ret i32 0
}

declare dso_local i32 @__isoc99_scanf(i8*, ...) #1

declare dso_local i32 @printf(i8*, ...) #1


!llvm.module.flags = !{!0}
!llvm.ident = !{!1}

!0 = !{i32 1, !"wchar_size", i32 4}
!1 = !{!"clang version 10.0.0-4ubuntu1 "}
